; Function Attrs: mustprogress nounwind uwtable
define dso_local noundef ptr @_ZN5clang17PragmaCommentDecl6CreateERKNS_10ASTContextEPNS_19TranslationUnitDeclENS_14SourceLocationENS_19PragmaMSCommentKindEN4llvm9StringRefE(ptr noundef nonnull align 8 dereferenceable(23096) %0, ptr noundef %1, i32 %2, i32 noundef %3, ptr nocapture readonly %4, i64 %5) local_unnamed_addr #2 align 2 {
  %7 = icmp eq ptr %1, null
  %8 = getelementptr inbounds i8, ptr %1, i64 40
  %spec.select = select i1 %7, ptr null, ptr %8
  %9 = add i64 %5, 1
  %10 = tail call noundef ptr @_ZN5clang4DeclnwEmRKNS_10ASTContextEPNS_11DeclContextEm(i64 noundef 40, ptr noundef nonnull align 8 dereferenceable(23096) %0, ptr noundef %spec.select, i64 noundef %9) #27
  tail call void @_ZN5clang4DeclC2ENS0_4KindEPNS_11DeclContextENS_14SourceLocationE(ptr noundef nonnull align 8 dereferenceable(33) %10, i32 noundef 10, ptr noundef %spec.select, i32 %2)
  store ptr getelementptr inbounds inrange(-16, 88) (i8, ptr @_ZTVN5clang17PragmaCommentDeclE, i64 16), ptr %10, align 8
  %11 = getelementptr inbounds nuw i8, ptr %10, i64 36
  store i32 %3, ptr %11, align 4
  %12 = getelementptr inbounds i8, ptr %10, i64 40
  tail call void @llvm.memcpy.p0.p0.i64(ptr nonnull align 1 %12, ptr align 1 %4, i64 %5, i1 false)
  %13 = getelementptr inbounds i8, ptr %12, i64 %5
  store i8 0, ptr %13, align 1
  ret ptr %10
}